; Function Attrs: nounwind uwtable
define i32 @Abc_NtkGetBddNodeNum(ptr noundef readonly captures(none) %0) local_unnamed_addr #0 {
  %2 = getelementptr inbounds nuw i8, ptr %0, i64 32
  %3 = load ptr, ptr %2, align 8
  %4 = getelementptr i8, ptr %3, i64 4
  %.val18 = load i32, ptr %4, align 4
  %5 = icmp sgt i32 %.val18, 0
  br i1 %5, label %.lr.ph, label %.critedge

.lr.ph:                                           ; preds = %1, %26
  %.pre22 = phi ptr [ %.pre23, %26 ], [ %3, %1 ]
  %6 = phi ptr [ %27, %26 ], [ %3, %1 ]
  %indvars.iv = phi i64 [ %indvars.iv.next, %26 ], [ 0, %1 ]
  %.01119 = phi i32 [ %.1, %26 ], [ 0, %1 ]
  %7 = getelementptr i8, ptr %6, i64 8
  %.val16.val = load ptr, ptr %7, align 8
  %8 = getelementptr inbounds nuw ptr, ptr %.val16.val, i64 %indvars.iv
  %9 = load ptr, ptr %8, align 8
  %10 = icmp eq ptr %9, null
  br i1 %10, label %26, label %11

11:                                               ; preds = %.lr.ph
  %12 = getelementptr i8, ptr %9, i64 20
  %.val17 = load i32, ptr %12, align 4
  %13 = and i32 %.val17, 15
  %.not = icmp eq i32 %13, 7
  br i1 %.not, label %14, label %26

14:                                               ; preds = %11
  %15 = getelementptr i8, ptr %9, i64 28
  %.val15 = load i32, ptr %15, align 4
  %16 = icmp slt i32 %.val15, 2
  br i1 %16, label %26, label %17

17:                                               ; preds = %14
  %18 = getelementptr inbounds nuw i8, ptr %9, i64 56
  %19 = load ptr, ptr %18, align 8
  %.not14 = icmp eq ptr %19, null
  br i1 %.not14, label %23, label %20

20:                                               ; preds = %17
  %21 = tail call i32 @Cudd_DagSize(ptr noundef nonnull %19) #28
  %22 = add nsw i32 %21, -1
  %.pre.pre = load ptr, ptr %2, align 8
  br label %23

23:                                               ; preds = %17, %20
  %.pre = phi ptr [ %.pre.pre, %20 ], [ %.pre22, %17 ]
  %24 = phi i32 [ %22, %20 ], [ 0, %17 ]
  %25 = add nsw i32 %24, %.01119
  br label %26

26:                                               ; preds = %23, %11, %.lr.ph, %14
  %.pre23 = phi ptr [ %.pre22, %.lr.ph ], [ %.pre22, %14 ], [ %.pre, %23 ], [ %.pre22, %11 ]
  %27 = phi ptr [ %6, %.lr.ph ], [ %6, %14 ], [ %.pre, %23 ], [ %6, %11 ]
  %.1 = phi i32 [ %.01119, %.lr.ph ], [ %.01119, %14 ], [ %25, %23 ], [ %.01119, %11 ]
  %indvars.iv.next = add nuw nsw i64 %indvars.iv, 1
  %28 = getelementptr i8, ptr %27, i64 4
  %.val = load i32, ptr %28, align 4
  %29 = sext i32 %.val to i64
  %30 = icmp slt i64 %indvars.iv.next, %29
  br i1 %30, label %.lr.ph, label %.critedge, !llvm.loop !19

.critedge:                                        ; preds = %26, %1
  %.011.lcssa = phi i32 [ 0, %1 ], [ %.1, %26 ]
  ret i32 %.011.lcssa
}